; Function Attrs: nounwind uwtable
define dso_local void @ExecInitRangeTable(ptr noundef writeonly captures(none) initializes((24, 36), (40, 64), (96, 104), (128, 136)) %0, ptr noundef %1, ptr noundef %2, ptr noundef %3) local_unnamed_addr #0 {
  %5 = getelementptr inbounds nuw i8, ptr %0, i64 24
  store ptr %1, ptr %5, align 8
  %6 = getelementptr inbounds nuw i8, ptr %0, i64 56
  store ptr %2, ptr %6, align 8
  %.not.i = icmp eq ptr %1, null
  br i1 %.not.i, label %list_length.exit, label %7

7:                                                ; preds = %4
  %8 = getelementptr inbounds nuw i8, ptr %1, i64 4
  %9 = load i32, ptr %8, align 4
  br label %list_length.exit

list_length.exit:                                 ; preds = %4, %7
  %10 = phi i32 [ %9, %7 ], [ 0, %4 ]
  %11 = getelementptr inbounds nuw i8, ptr %0, i64 32
  store i32 %10, ptr %11, align 8
  %12 = getelementptr inbounds nuw i8, ptr %0, i64 96
  store ptr %3, ptr %12, align 8
  %13 = zext i32 %10 to i64
  %14 = shl nuw nsw i64 %13, 3
  %15 = tail call ptr @palloc0(i64 noundef %14) #12
  %16 = getelementptr inbounds nuw i8, ptr %0, i64 40
  store ptr %15, ptr %16, align 8
  %17 = getelementptr inbounds nuw i8, ptr %0, i64 128
  store ptr null, ptr %17, align 8
  %18 = getelementptr inbounds nuw i8, ptr %0, i64 48
  store ptr null, ptr %18, align 8
  ret void
}